; Function Attrs: mustprogress uwtable
define noundef ptr @_ZNK19OpenColorIO_v2_5dev9FileRules4Impl25getColorSpaceFromFilepathERKNS_6ConfigEPKc(ptr noundef nonnull readonly align 8 captures(none) dereferenceable(24) %0, ptr noundef nonnull align 8 dereferenceable(8) %1, ptr noundef %2) local_unnamed_addr #0 align 2 {
  %4 = getelementptr inbounds nuw i8, ptr %0, i64 8
  %5 = load ptr, ptr %4, align 8, !tbaa !14
  %6 = load ptr, ptr %0, align 8, !tbaa !11
  %.not15.not.i.i = icmp eq ptr %5, %6
  br i1 %.not15.not.i.i, label %._crit_edge.i.i, label %.lr.ph.preheader.i.i

.lr.ph.preheader.i.i:                             ; preds = %3
  %7 = ptrtoint ptr %5 to i64
  %8 = ptrtoint ptr %6 to i64
  %9 = sub i64 %7, %8
  %10 = ashr exact i64 %9, 4
  %umax.i.i = tail call i64 @llvm.umax.i64(i64 %10, i64 1)
  br label %.lr.ph.i.i

.lr.ph.i.i:                                       ; preds = %17, %.lr.ph.preheader.i.i
  %.01116.i.i = phi i64 [ %18, %17 ], [ 0, %.lr.ph.preheader.i.i ]
  %11 = load ptr, ptr %0, align 8, !tbaa !11
  %12 = getelementptr inbounds nuw %"class.std::shared_ptr.0", ptr %11, i64 %.01116.i.i
  %13 = load ptr, ptr %12, align 8, !tbaa !36
  %14 = tail call noundef zeroext i1 @_ZNK19OpenColorIO_v2_5dev8FileRule7matchesERKNS_6ConfigEPKc(ptr noundef nonnull align 8 dereferenceable(212) %13, ptr noundef nonnull align 8 dereferenceable(8) %1, ptr noundef %2)
  br i1 %14, label %.thread.i.i, label %17

.thread.i.i:                                      ; preds = %.lr.ph.i.i
  %15 = load ptr, ptr %0, align 8, !tbaa !11
  %16 = getelementptr inbounds nuw %"class.std::shared_ptr.0", ptr %15, i64 %.01116.i.i
  br label %_ZNK19OpenColorIO_v2_5dev9FileRules4Impl25getColorSpaceFromFilepathERKNS_6ConfigEPKcRm.exit

17:                                               ; preds = %.lr.ph.i.i
  %18 = add nuw i64 %.01116.i.i, 1
  %exitcond.not.i.i = icmp eq i64 %18, %umax.i.i
  br i1 %exitcond.not.i.i, label %._crit_edge.loopexit.i.i, label %.lr.ph.i.i, !llvm.loop !68

._crit_edge.loopexit.i.i:                         ; preds = %17
  %.pre.i.i = load ptr, ptr %4, align 8, !tbaa !35
  br label %._crit_edge.i.i

._crit_edge.i.i:                                  ; preds = %._crit_edge.loopexit.i.i, %3
  %19 = phi ptr [ %.pre.i.i, %._crit_edge.loopexit.i.i ], [ %5, %3 ]
  %20 = getelementptr inbounds i8, ptr %19, i64 -16
  br label %_ZNK19OpenColorIO_v2_5dev9FileRules4Impl25getColorSpaceFromFilepathERKNS_6ConfigEPKcRm.exit

_ZNK19OpenColorIO_v2_5dev9FileRules4Impl25getColorSpaceFromFilepathERKNS_6ConfigEPKcRm.exit: ; preds = %.thread.i.i, %._crit_edge.i.i
  %.pn.in.i.i = phi ptr [ %20, %._crit_edge.i.i ], [ %16, %.thread.i.i ]
  %.pn.i.i = load ptr, ptr %.pn.in.i.i, align 8, !tbaa !36
  %.1.in.i.i = getelementptr inbounds nuw i8, ptr %.pn.i.i, i64 80
  %.1.i.i = load ptr, ptr %.1.in.i.i, align 8, !tbaa !62
  ret ptr %.1.i.i
}